target datalayout = "e-m:e-p270:32:32-p271:32:32-p272:64:64-i64:64-i128:128-f80:128-n8:16:32:64-S128"
target triple = "x86_64-pc-linux-gnu"

%struct.strbuf = type { i64, i64, ptr }
%struct.object_id = type { [32 x i8], i32 }
%struct.commit_graft = type { %struct.object_id, i32, [0 x %struct.object_id] }

@sane_ctype = external constant [256 x i8], align 16
@.str.3 = private unnamed_addr constant [19 x i8] c"bad graft data: %s\00", align 1
@.str.37 = private unnamed_addr constant [27 x i8] c"size_t overflow: %lu * %lu\00", align 1
@.str.38 = private unnamed_addr constant [27 x i8] c"size_t overflow: %lu + %lu\00", align 1

; Function Attrs: inlinehint nounwind uwtable
define internal i32 @const_error() #4 {
  ret i32 -1
}

; Function Attrs: inlinehint nounwind uwtable
define internal i64 @st_add(i64 noundef %0, i64 noundef %1) #4 {
  %3 = alloca i64, align 8
  %4 = alloca i64, align 8
  store i64 %0, ptr %3, align 8, !tbaa !47
  store i64 %1, ptr %4, align 8, !tbaa !47
  %5 = load i64, ptr %4, align 8, !tbaa !47
  %6 = load i64, ptr %3, align 8, !tbaa !47
  %7 = sub i64 -1, %6
  %8 = icmp ugt i64 %5, %7
  br i1 %8, label %9, label %12

9:                                                ; preds = %2
  %10 = load i64, ptr %3, align 8, !tbaa !47
  %11 = load i64, ptr %4, align 8, !tbaa !47
  call void (ptr, ...) @die(ptr noundef @.str.38, i64 noundef %10, i64 noundef %11) #12
  unreachable

12:                                               ; preds = %2
  %13 = load i64, ptr %3, align 8, !tbaa !47
  %14 = load i64, ptr %4, align 8, !tbaa !47
  %15 = add i64 %13, %14
  ret i64 %15
}

; Function Attrs: inlinehint nounwind uwtable
define internal i64 @st_mult(i64 noundef %0, i64 noundef %1) #4 {
  %3 = alloca i64, align 8
  %4 = alloca i64, align 8
  store i64 %0, ptr %3, align 8, !tbaa !47
  store i64 %1, ptr %4, align 8, !tbaa !47
  %5 = load i64, ptr %3, align 8, !tbaa !47
  %6 = icmp ne i64 %5, 0
  br i1 %6, label %7, label %15

7:                                                ; preds = %2
  %8 = load i64, ptr %4, align 8, !tbaa !47
  %9 = load i64, ptr %3, align 8, !tbaa !47
  %10 = udiv i64 -1, %9
  %11 = icmp ugt i64 %8, %10
  br i1 %11, label %12, label %15

12:                                               ; preds = %7
  %13 = load i64, ptr %3, align 8, !tbaa !47
  %14 = load i64, ptr %4, align 8, !tbaa !47
  call void (ptr, ...) @die(ptr noundef @.str.37, i64 noundef %13, i64 noundef %14) #12
  unreachable

15:                                               ; preds = %7, %2
  %16 = load i64, ptr %3, align 8, !tbaa !47
  %17 = load i64, ptr %4, align 8, !tbaa !47
  %18 = mul i64 %16, %17
  ret i64 %18
}

; Function Attrs: nounwind uwtable
define dso_local ptr @read_graft_line(ptr noundef %0) #0 {
  %2 = alloca ptr, align 8
  %3 = alloca ptr, align 8
  %4 = alloca i32, align 4
  %5 = alloca i32, align 4
  %6 = alloca ptr, align 8
  %7 = alloca ptr, align 8
  %8 = alloca %struct.object_id, align 4
  %9 = alloca ptr, align 8
  %10 = alloca i32, align 4
  store ptr %0, ptr %3, align 8, !tbaa !62
  call void @llvm.lifetime.start.p0(i64 4, ptr %4) #11
  call void @llvm.lifetime.start.p0(i64 4, ptr %5) #11
  call void @llvm.lifetime.start.p0(i64 8, ptr %6) #11
  store ptr null, ptr %6, align 8, !tbaa !15
  call void @llvm.lifetime.start.p0(i64 8, ptr %7) #11
  store ptr null, ptr %7, align 8, !tbaa !50
  call void @llvm.lifetime.start.p0(i64 36, ptr %8) #11
  call void @llvm.lifetime.start.p0(i64 8, ptr %9) #11
  %11 = load ptr, ptr %3, align 8, !tbaa !62
  call void @strbuf_rtrim(ptr noundef %11)
  %12 = load ptr, ptr %3, align 8, !tbaa !62
  %13 = getelementptr inbounds nuw %struct.strbuf, ptr %12, i32 0, i32 1
  %14 = load i64, ptr %13, align 8, !tbaa !64
  %15 = icmp ne i64 %14, 0
  br i1 %15, label %16, label %24

16:                                               ; preds = %1
  %17 = load ptr, ptr %3, align 8, !tbaa !62
  %18 = getelementptr inbounds nuw %struct.strbuf, ptr %17, i32 0, i32 2
  %19 = load ptr, ptr %18, align 8, !tbaa !66
  %20 = getelementptr inbounds i8, ptr %19, i64 0
  %21 = load i8, ptr %20, align 1, !tbaa !19
  %22 = sext i8 %21 to i32
  %23 = icmp eq i32 %22, 35
  br i1 %23, label %24, label %25

24:                                               ; preds = %16, %1
  store ptr null, ptr %2, align 8
  store i32 1, ptr %10, align 4
  br label %106

25:                                               ; preds = %16
  store i32 0, ptr %5, align 4, !tbaa !11
  br label %26

26:                                               ; preds = %95, %25
  %27 = load i32, ptr %5, align 4, !tbaa !11
  %28 = icmp slt i32 %27, 2
  br i1 %28, label %29, label %98

29:                                               ; preds = %26
  %30 = load ptr, ptr %7, align 8, !tbaa !50
  %31 = icmp ne ptr %30, null
  br i1 %31, label %32, label %35

32:                                               ; preds = %29
  %33 = load ptr, ptr %7, align 8, !tbaa !50
  %34 = getelementptr inbounds nuw %struct.commit_graft, ptr %33, i32 0, i32 0
  br label %36

35:                                               ; preds = %29
  br label %36

36:                                               ; preds = %35, %32
  %37 = phi ptr [ %34, %32 ], [ %8, %35 ]
  store ptr %37, ptr %9, align 8, !tbaa !9
  %38 = load ptr, ptr %3, align 8, !tbaa !62
  %39 = getelementptr inbounds nuw %struct.strbuf, ptr %38, i32 0, i32 2
  %40 = load ptr, ptr %39, align 8, !tbaa !66
  %41 = load ptr, ptr %9, align 8, !tbaa !9
  %42 = call i32 @parse_oid_hex(ptr noundef %40, ptr noundef %41, ptr noundef %6)
  %43 = icmp ne i32 %42, 0
  br i1 %43, label %44, label %45

44:                                               ; preds = %36
  br label %100

45:                                               ; preds = %36
  store i32 0, ptr %4, align 4, !tbaa !11
  br label %46

46:                                               ; preds = %79, %45
  %47 = load ptr, ptr %6, align 8, !tbaa !15
  %48 = load i8, ptr %47, align 1, !tbaa !19
  %49 = sext i8 %48 to i32
  %50 = icmp ne i32 %49, 0
  br i1 %50, label %51, label %82

51:                                               ; preds = %46
  %52 = load ptr, ptr %7, align 8, !tbaa !50
  %53 = icmp ne ptr %52, null
  br i1 %53, label %54, label %60

54:                                               ; preds = %51
  %55 = load ptr, ptr %7, align 8, !tbaa !50
  %56 = getelementptr inbounds nuw %struct.commit_graft, ptr %55, i32 0, i32 2
  %57 = load i32, ptr %4, align 4, !tbaa !11
  %58 = sext i32 %57 to i64
  %59 = getelementptr inbounds [0 x %struct.object_id], ptr %56, i64 0, i64 %58
  br label %61

60:                                               ; preds = %51
  br label %61

61:                                               ; preds = %60, %54
  %62 = phi ptr [ %59, %54 ], [ %8, %60 ]
  store ptr %62, ptr %9, align 8, !tbaa !9
  %63 = load ptr, ptr %6, align 8, !tbaa !15
  %64 = getelementptr inbounds nuw i8, ptr %63, i32 1
  store ptr %64, ptr %6, align 8, !tbaa !15
  %65 = load i8, ptr %63, align 1, !tbaa !19
  %66 = zext i8 %65 to i64
  %67 = getelementptr inbounds nuw [256 x i8], ptr @sane_ctype, i64 0, i64 %66
  %68 = load i8, ptr %67, align 1, !tbaa !19
  %69 = zext i8 %68 to i32
  %70 = and i32 %69, 1
  %71 = icmp ne i32 %70, 0
  br i1 %71, label %72, label %77

72:                                               ; preds = %61
  %73 = load ptr, ptr %6, align 8, !tbaa !15
  %74 = load ptr, ptr %9, align 8, !tbaa !9
  %75 = call i32 @parse_oid_hex(ptr noundef %73, ptr noundef %74, ptr noundef %6)
  %76 = icmp ne i32 %75, 0
  br i1 %76, label %77, label %78

77:                                               ; preds = %72, %61
  br label %100

78:                                               ; preds = %72
  br label %79

79:                                               ; preds = %78
  %80 = load i32, ptr %4, align 4, !tbaa !11
  %81 = add nsw i32 %80, 1
  store i32 %81, ptr %4, align 4, !tbaa !11
  br label %46, !llvm.loop !67

82:                                               ; preds = %46
  %83 = load ptr, ptr %7, align 8, !tbaa !50
  %84 = icmp ne ptr %83, null
  br i1 %84, label %94, label %85

85:                                               ; preds = %82
  %86 = load i32, ptr %4, align 4, !tbaa !11
  %87 = sext i32 %86 to i64
  %88 = call i64 @st_mult(i64 noundef 36, i64 noundef %87)
  %89 = call i64 @st_add(i64 noundef 40, i64 noundef %88)
  %90 = call ptr @xmalloc(i64 noundef %89)
  store ptr %90, ptr %7, align 8, !tbaa !50
  %91 = load i32, ptr %4, align 4, !tbaa !11
  %92 = load ptr, ptr %7, align 8, !tbaa !50
  %93 = getelementptr inbounds nuw %struct.commit_graft, ptr %92, i32 0, i32 1
  store i32 %91, ptr %93, align 4, !tbaa !11
  br label %94

94:                                               ; preds = %85, %82
  br label %95

95:                                               ; preds = %94
  %96 = load i32, ptr %5, align 4, !tbaa !11
  %97 = add nsw i32 %96, 1
  store i32 %97, ptr %5, align 4, !tbaa !11
  br label %26, !llvm.loop !68

98:                                               ; preds = %26
  %99 = load ptr, ptr %7, align 8, !tbaa !50
  store ptr %99, ptr %2, align 8
  store i32 1, ptr %10, align 4
  br label %106

100:                                              ; preds = %77, %44
  %101 = load ptr, ptr %3, align 8, !tbaa !62
  %102 = getelementptr inbounds nuw %struct.strbuf, ptr %101, i32 0, i32 2
  %103 = load ptr, ptr %102, align 8, !tbaa !66
  %104 = call i32 (ptr, ...) @error(ptr noundef @.str.3, ptr noundef %103)
  %105 = call i32 @const_error()
  store ptr null, ptr %2, align 8
  store i32 1, ptr %10, align 4
  br label %106

106:                                              ; preds = %100, %98, %24
  call void @llvm.lifetime.end.p0(i64 8, ptr %9) #11
  call void @llvm.lifetime.end.p0(i64 36, ptr %8) #11
  call void @llvm.lifetime.end.p0(i64 8, ptr %7) #11
  call void @llvm.lifetime.end.p0(i64 8, ptr %6) #11
  call void @llvm.lifetime.end.p0(i64 4, ptr %5) #11
  call void @llvm.lifetime.end.p0(i64 4, ptr %4) #11
  %107 = load ptr, ptr %2, align 8
  ret ptr %107
}