; Function Attrs: nounwind uwtable
define dso_local ptr @read_graft_line(ptr noundef %0) local_unnamed_addr #0 {
  %2 = alloca ptr, align 8
  %3 = alloca %struct.object_id, align 4
  call void @llvm.lifetime.start.p0(i64 8, ptr nonnull %2) #24
  store ptr null, ptr %2, align 8, !tbaa !54
  call void @llvm.lifetime.start.p0(i64 36, ptr nonnull %3) #24
  tail call void @strbuf_rtrim(ptr noundef %0) #24
  %4 = getelementptr inbounds nuw i8, ptr %0, i64 8
  %5 = load i64, ptr %4, align 8, !tbaa !55
  %.not = icmp eq i64 %5, 0
  br i1 %.not, label %.loopexit30, label %6

6:                                                ; preds = %1
  %7 = getelementptr inbounds nuw i8, ptr %0, i64 16
  %8 = load ptr, ptr %7, align 8, !tbaa !57
  %9 = load i8, ptr %8, align 1, !tbaa !11
  %10 = icmp eq i8 %9, 35
  br i1 %10, label %.loopexit30, label %.preheader29

.preheader29:                                     ; preds = %6, %._crit_edge.thread
  %.038 = phi ptr [ %.1, %._crit_edge.thread ], [ null, %6 ]
  %11 = phi i1 [ false, %._crit_edge.thread ], [ true, %6 ]
  %.038.fr = freeze ptr %.038
  %.not23 = icmp eq ptr %.038.fr, null
  %12 = select i1 %.not23, ptr %3, ptr %.038.fr
  %13 = load ptr, ptr %7, align 8, !tbaa !57
  %14 = call i32 @parse_oid_hex(ptr noundef %13, ptr noundef nonnull %12, ptr noundef nonnull %2) #24
  %.not24 = icmp eq i32 %14, 0
  br i1 %.not24, label %.preheader, label %.loopexit

.preheader:                                       ; preds = %.preheader29
  %15 = load ptr, ptr %2, align 8, !tbaa !54
  %16 = load i8, ptr %15, align 1, !tbaa !11
  %.not2535 = icmp eq i8 %16, 0
  br i1 %.not2535, label %._crit_edge, label %.lr.ph

.lr.ph:                                           ; preds = %.preheader
  %17 = getelementptr inbounds nuw i8, ptr %.038.fr, i64 40
  br i1 %.not23, label %.lr.ph.split.us, label %.lr.ph.split

.lr.ph.split.us:                                  ; preds = %.lr.ph, %27
  %18 = phi ptr [ %29, %27 ], [ %15, %.lr.ph ]
  %.02136.us = phi i32 [ %28, %27 ], [ 0, %.lr.ph ]
  %19 = getelementptr inbounds nuw i8, ptr %18, i64 1
  store ptr %19, ptr %2, align 8, !tbaa !54
  %20 = load i8, ptr %18, align 1, !tbaa !11
  %21 = zext i8 %20 to i64
  %22 = getelementptr inbounds nuw [256 x i8], ptr @sane_ctype, i64 0, i64 %21
  %23 = load i8, ptr %22, align 1, !tbaa !11
  %24 = and i8 %23, 1
  %.not26.us = icmp eq i8 %24, 0
  br i1 %.not26.us, label %.loopexit, label %25

25:                                               ; preds = %.lr.ph.split.us
  %26 = call i32 @parse_oid_hex(ptr noundef nonnull %19, ptr noundef nonnull %3, ptr noundef nonnull %2) #24
  %.not27.us = icmp eq i32 %26, 0
  br i1 %.not27.us, label %27, label %.loopexit

27:                                               ; preds = %25
  %28 = add nuw nsw i32 %.02136.us, 1
  %29 = load ptr, ptr %2, align 8, !tbaa !54
  %30 = load i8, ptr %29, align 1, !tbaa !11
  %.not25.us = icmp eq i8 %30, 0
  br i1 %.not25.us, label %._crit_edge, label %.lr.ph.split.us, !llvm.loop !58

.lr.ph.split:                                     ; preds = %.lr.ph, %41
  %indvars.iv = phi i64 [ %indvars.iv.next, %41 ], [ 0, %.lr.ph ]
  %31 = phi ptr [ %42, %41 ], [ %15, %.lr.ph ]
  %32 = getelementptr inbounds nuw i8, ptr %31, i64 1
  store ptr %32, ptr %2, align 8, !tbaa !54
  %33 = load i8, ptr %31, align 1, !tbaa !11
  %34 = zext i8 %33 to i64
  %35 = getelementptr inbounds nuw [256 x i8], ptr @sane_ctype, i64 0, i64 %34
  %36 = load i8, ptr %35, align 1, !tbaa !11
  %37 = and i8 %36, 1
  %.not26 = icmp eq i8 %37, 0
  br i1 %.not26, label %.loopexit, label %38

38:                                               ; preds = %.lr.ph.split
  %39 = getelementptr inbounds nuw [0 x %struct.object_id], ptr %17, i64 0, i64 %indvars.iv
  %40 = call i32 @parse_oid_hex(ptr noundef nonnull %32, ptr noundef nonnull %39, ptr noundef nonnull %2) #24
  %.not27 = icmp eq i32 %40, 0
  br i1 %.not27, label %41, label %.loopexit

41:                                               ; preds = %38
  %indvars.iv.next = add nuw nsw i64 %indvars.iv, 1
  %42 = load ptr, ptr %2, align 8, !tbaa !54
  %43 = load i8, ptr %42, align 1, !tbaa !11
  %.not25 = icmp eq i8 %43, 0
  br i1 %.not25, label %._crit_edge.thread, label %.lr.ph.split, !llvm.loop !58

._crit_edge:                                      ; preds = %27, %.preheader
  %.021.lcssa = phi i32 [ 0, %.preheader ], [ %28, %27 ]
  br i1 %.not23, label %st_mult.exit, label %._crit_edge.thread

st_mult.exit:                                     ; preds = %._crit_edge
  %44 = zext nneg i32 %.021.lcssa to i64
  %45 = mul nuw nsw i64 %44, 36
  %46 = add nuw nsw i64 %45, 40
  %47 = call ptr @xmalloc(i64 noundef %46) #24
  %48 = getelementptr inbounds nuw i8, ptr %47, i64 36
  store i32 %.021.lcssa, ptr %48, align 4, !tbaa !9
  br label %._crit_edge.thread

._crit_edge.thread:                               ; preds = %41, %._crit_edge, %st_mult.exit
  %.1 = phi ptr [ %.038.fr, %._crit_edge ], [ %47, %st_mult.exit ], [ %.038.fr, %41 ]
  br i1 %11, label %.preheader29, label %.loopexit30, !llvm.loop !59

.loopexit:                                        ; preds = %.preheader29, %38, %.lr.ph.split, %25, %.lr.ph.split.us
  %49 = load ptr, ptr %7, align 8, !tbaa !57
  %50 = call i32 (ptr, ...) @error(ptr noundef nonnull @.str.3, ptr noundef %49) #24
  br label %.loopexit30

.loopexit30:                                      ; preds = %._crit_edge.thread, %1, %6, %.loopexit
  %.022 = phi ptr [ null, %.loopexit ], [ null, %6 ], [ null, %1 ], [ %.1, %._crit_edge.thread ]
  call void @llvm.lifetime.end.p0(i64 36, ptr nonnull %3) #24
  call void @llvm.lifetime.end.p0(i64 8, ptr nonnull %2) #24
  ret ptr %.022
}